target datalayout = "e-m:e-p270:32:32-p271:32:32-p272:64:64-i64:64-i128:128-f80:128-n8:16:32:64-S128"
target triple = "x86_64-pc-linux-gnu"

%struct.OptionDef = type { ptr, i32, i32, %union.anon, ptr, ptr, %union.anon.0 }
%union.anon = type { ptr }
%union.anon.0 = type { ptr }

@.str.4 = private unnamed_addr constant [4 x i8] c"%s\0A\00", align 1
@.str.5 = private unnamed_addr constant [17 x i8] c"[:<stream_spec>]\00", align 1
@.str.6 = private unnamed_addr constant [10 x i8] c"[:<spec>]\00", align 1
@.str.7 = private unnamed_addr constant [6 x i8] c" <%s>\00", align 1
@.str.8 = private unnamed_addr constant [12 x i8] c"-%-17s  %s\0A\00", align 1
@.str.9 = private unnamed_addr constant [2 x i8] c"\0A\00", align 1

; Function Attrs: nounwind uwtable
define void @show_help_options(ptr noundef %0, ptr noundef %1, i32 noundef %2, i32 noundef %3) #0 {
  %5 = alloca ptr, align 8
  %6 = alloca ptr, align 8
  %7 = alloca i32, align 4
  %8 = alloca i32, align 4
  %9 = alloca ptr, align 8
  %10 = alloca i32, align 4
  %11 = alloca [128 x i8], align 16
  %12 = alloca i32, align 4
  store ptr %0, ptr %5, align 8, !tbaa !21
  store ptr %1, ptr %6, align 8, !tbaa !10
  store i32 %2, ptr %7, align 4, !tbaa !8
  store i32 %3, ptr %8, align 4, !tbaa !8
  call void @llvm.lifetime.start.p0(i64 8, ptr %9) #11
  call void @llvm.lifetime.start.p0(i64 4, ptr %10) #11
  store i32 1, ptr %10, align 4, !tbaa !8
  %13 = load ptr, ptr %5, align 8, !tbaa !21
  store ptr %13, ptr %9, align 8, !tbaa !21
  br label %14

14:                                               ; preds = %85, %4
  %15 = load ptr, ptr %9, align 8, !tbaa !21
  %16 = getelementptr inbounds nuw %struct.OptionDef, ptr %15, i32 0, i32 0
  %17 = load ptr, ptr %16, align 8, !tbaa !23
  %18 = icmp ne ptr %17, null
  br i1 %18, label %19, label %88

19:                                               ; preds = %14
  call void @llvm.lifetime.start.p0(i64 128, ptr %11) #11
  %20 = load ptr, ptr %9, align 8, !tbaa !21
  %21 = getelementptr inbounds nuw %struct.OptionDef, ptr %20, i32 0, i32 2
  %22 = load i32, ptr %21, align 4, !tbaa !25
  %23 = load i32, ptr %7, align 4, !tbaa !8
  %24 = and i32 %22, %23
  %25 = load i32, ptr %7, align 4, !tbaa !8
  %26 = icmp ne i32 %24, %25
  br i1 %26, label %34, label %27

27:                                               ; preds = %19
  %28 = load ptr, ptr %9, align 8, !tbaa !21
  %29 = getelementptr inbounds nuw %struct.OptionDef, ptr %28, i32 0, i32 2
  %30 = load i32, ptr %29, align 4, !tbaa !25
  %31 = load i32, ptr %8, align 4, !tbaa !8
  %32 = and i32 %30, %31
  %33 = icmp ne i32 %32, 0
  br i1 %33, label %34, label %35

34:                                               ; preds = %27, %19
  store i32 4, ptr %12, align 4
  br label %82

35:                                               ; preds = %27
  %36 = load i32, ptr %10, align 4, !tbaa !8
  %37 = icmp ne i32 %36, 0
  br i1 %37, label %38, label %41

38:                                               ; preds = %35
  %39 = load ptr, ptr %6, align 8, !tbaa !10
  %40 = call i32 (ptr, ...) @printf(ptr noundef @.str.4, ptr noundef %39)
  store i32 0, ptr %10, align 4, !tbaa !8
  br label %41

41:                                               ; preds = %38, %35
  %42 = getelementptr inbounds [128 x i8], ptr %11, i64 0, i64 0
  %43 = load ptr, ptr %9, align 8, !tbaa !21
  %44 = getelementptr inbounds nuw %struct.OptionDef, ptr %43, i32 0, i32 0
  %45 = load ptr, ptr %44, align 8, !tbaa !23
  %46 = call i64 @av_strlcpy(ptr noundef %42, ptr noundef %45, i64 noundef 128)
  %47 = load ptr, ptr %9, align 8, !tbaa !21
  %48 = getelementptr inbounds nuw %struct.OptionDef, ptr %47, i32 0, i32 2
  %49 = load i32, ptr %48, align 4, !tbaa !25
  %50 = and i32 %49, 1024
  %51 = icmp ne i32 %50, 0
  br i1 %51, label %52, label %55

52:                                               ; preds = %41
  %53 = getelementptr inbounds [128 x i8], ptr %11, i64 0, i64 0
  %54 = call i64 @av_strlcat(ptr noundef %53, ptr noundef @.str.5, i64 noundef 128)
  br label %65

55:                                               ; preds = %41
  %56 = load ptr, ptr %9, align 8, !tbaa !21
  %57 = getelementptr inbounds nuw %struct.OptionDef, ptr %56, i32 0, i32 2
  %58 = load i32, ptr %57, align 4, !tbaa !25
  %59 = and i32 %58, 512
  %60 = icmp ne i32 %59, 0
  br i1 %60, label %61, label %64

61:                                               ; preds = %55
  %62 = getelementptr inbounds [128 x i8], ptr %11, i64 0, i64 0
  %63 = call i64 @av_strlcat(ptr noundef %62, ptr noundef @.str.6, i64 noundef 128)
  br label %64

64:                                               ; preds = %61, %55
  br label %65

65:                                               ; preds = %64, %52
  %66 = load ptr, ptr %9, align 8, !tbaa !21
  %67 = getelementptr inbounds nuw %struct.OptionDef, ptr %66, i32 0, i32 5
  %68 = load ptr, ptr %67, align 8, !tbaa !26
  %69 = icmp ne ptr %68, null
  br i1 %69, label %70, label %76

70:                                               ; preds = %65
  %71 = getelementptr inbounds [128 x i8], ptr %11, i64 0, i64 0
  %72 = load ptr, ptr %9, align 8, !tbaa !21
  %73 = getelementptr inbounds nuw %struct.OptionDef, ptr %72, i32 0, i32 5
  %74 = load ptr, ptr %73, align 8, !tbaa !26
  %75 = call i64 (ptr, i64, ptr, ...) @av_strlcatf(ptr noundef %71, i64 noundef 128, ptr noundef @.str.7, ptr noundef %74)
  br label %76

76:                                               ; preds = %70, %65
  %77 = getelementptr inbounds [128 x i8], ptr %11, i64 0, i64 0
  %78 = load ptr, ptr %9, align 8, !tbaa !21
  %79 = getelementptr inbounds nuw %struct.OptionDef, ptr %78, i32 0, i32 4
  %80 = load ptr, ptr %79, align 8, !tbaa !27
  %81 = call i32 (ptr, ...) @printf(ptr noundef @.str.8, ptr noundef %77, ptr noundef %80)
  store i32 0, ptr %12, align 4
  br label %82

82:                                               ; preds = %76, %34
  call void @llvm.lifetime.end.p0(i64 128, ptr %11) #11
  %83 = load i32, ptr %12, align 4
  switch i32 %83, label %90 [
    i32 0, label %84
    i32 4, label %85
  ]

84:                                               ; preds = %82
  br label %85

85:                                               ; preds = %84, %82
  %86 = load ptr, ptr %9, align 8, !tbaa !21
  %87 = getelementptr inbounds nuw %struct.OptionDef, ptr %86, i32 1
  store ptr %87, ptr %9, align 8, !tbaa !21
  br label %14, !llvm.loop !28

88:                                               ; preds = %14
  %89 = call i32 (ptr, ...) @printf(ptr noundef @.str.9)
  call void @llvm.lifetime.end.p0(i64 4, ptr %10) #11
  call void @llvm.lifetime.end.p0(i64 8, ptr %9) #11
  ret void

90:                                               ; preds = %82
  unreachable
}