; Function Attrs: nounwind uwtable
define void @show_help_options(ptr noundef readonly captures(none) %0, ptr noundef readonly captures(none) %1, i32 noundef %2, i32 noundef %3) local_unnamed_addr #0 {
  %5 = alloca [128 x i8], align 16
  %6 = load ptr, ptr %0, align 8, !tbaa !14
  %.not23 = icmp eq ptr %6, null
  br i1 %.not23, label %._crit_edge, label %.lr.ph

.lr.ph:                                           ; preds = %4, %31
  %7 = phi ptr [ %33, %31 ], [ %6, %4 ]
  %.025 = phi i32 [ %.1, %31 ], [ 1, %4 ]
  %.01524 = phi ptr [ %32, %31 ], [ %0, %4 ]
  call void @llvm.lifetime.start.p0(i64 128, ptr nonnull %5) #15
  %8 = getelementptr inbounds nuw i8, ptr %.01524, i64 12
  %9 = load i32, ptr %8, align 4, !tbaa !17
  %10 = and i32 %9, %2
  %.not17 = icmp eq i32 %10, %2
  %11 = and i32 %9, %3
  %.not18 = icmp eq i32 %11, 0
  %or.cond = and i1 %.not17, %.not18
  br i1 %or.cond, label %12, label %31

12:                                               ; preds = %.lr.ph
  %.not19 = icmp eq i32 %.025, 0
  br i1 %.not19, label %14, label %13

13:                                               ; preds = %12
  %puts = call i32 @puts(ptr nonnull dereferenceable(1) %1)
  %.pre = load ptr, ptr %.01524, align 8, !tbaa !14
  br label %14

14:                                               ; preds = %13, %12
  %15 = phi ptr [ %.pre, %13 ], [ %7, %12 ]
  %16 = call i64 @av_strlcpy(ptr noundef nonnull %5, ptr noundef %15, i64 noundef 128) #15
  %17 = load i32, ptr %8, align 4, !tbaa !17
  %18 = and i32 %17, 1024
  %.not20 = icmp eq i32 %18, 0
  br i1 %.not20, label %19, label %.sink.split

19:                                               ; preds = %14
  %20 = and i32 %17, 512
  %.not21 = icmp eq i32 %20, 0
  br i1 %.not21, label %22, label %.sink.split

.sink.split:                                      ; preds = %19, %14
  %.str.6.sink = phi ptr [ @.str.5, %14 ], [ @.str.6, %19 ]
  %21 = call i64 @av_strlcat(ptr noundef nonnull %5, ptr noundef nonnull %.str.6.sink, i64 noundef 128) #15
  br label %22

22:                                               ; preds = %.sink.split, %19
  %23 = getelementptr inbounds nuw i8, ptr %.01524, i64 32
  %24 = load ptr, ptr %23, align 8, !tbaa !18
  %.not22 = icmp eq ptr %24, null
  br i1 %.not22, label %27, label %25

25:                                               ; preds = %22
  %26 = call i64 (ptr, i64, ptr, ...) @av_strlcatf(ptr noundef nonnull %5, i64 noundef 128, ptr noundef nonnull @.str.7, ptr noundef nonnull %24) #15
  br label %27

27:                                               ; preds = %25, %22
  %28 = getelementptr inbounds nuw i8, ptr %.01524, i64 24
  %29 = load ptr, ptr %28, align 8, !tbaa !19
  %30 = call i32 (ptr, ...) @printf(ptr noundef nonnull dereferenceable(1) @.str.8, ptr noundef nonnull %5, ptr noundef %29)
  br label %31

31:                                               ; preds = %.lr.ph, %27
  %.1 = phi i32 [ 0, %27 ], [ %.025, %.lr.ph ]
  call void @llvm.lifetime.end.p0(i64 128, ptr nonnull %5) #15
  %32 = getelementptr inbounds nuw i8, ptr %.01524, i64 48
  %33 = load ptr, ptr %32, align 8, !tbaa !14
  %.not = icmp eq ptr %33, null
  br i1 %.not, label %._crit_edge, label %.lr.ph, !llvm.loop !20

._crit_edge:                                      ; preds = %31, %4
  %putchar = call i32 @putchar(i32 10)
  ret void
}